; Function Attrs: mustprogress nounwind uwtable
define internal noundef zeroext i1 @_ZL21diagGroupBeforeByNamePKN4llvm6RecordES2_(ptr noundef nonnull %0, ptr noundef %1) #0 {
  %3 = tail call { ptr, i64 } @_ZNK4llvm6Record16getValueAsStringENS_9StringRefE(ptr noundef nonnull align 8 dereferenceable(192) %0, ptr nonnull @.str.10, i64 9) #19
  %4 = extractvalue { ptr, i64 } %3, 1
  %5 = tail call { ptr, i64 } @_ZNK4llvm6Record16getValueAsStringENS_9StringRefE(ptr noundef nonnull align 8 dereferenceable(192) %1, ptr nonnull @.str.10, i64 9) #19
  %6 = extractvalue { ptr, i64 } %5, 1
  %.sroa.speculated.i.i = tail call i64 @llvm.umin.i64(i64 %6, i64 %4)
  %7 = icmp eq i64 %.sroa.speculated.i.i, 0
  br i1 %7, label %_ZN4llvm9StringRef13compareMemoryEPKcS2_m.exit.thread.i.i, label %_ZN4llvm9StringRef13compareMemoryEPKcS2_m.exit.i.i

_ZN4llvm9StringRef13compareMemoryEPKcS2_m.exit.i.i: ; preds = %2
  %8 = extractvalue { ptr, i64 } %5, 0
  %9 = extractvalue { ptr, i64 } %3, 0
  %10 = tail call i32 @memcmp(ptr noundef %9, ptr noundef %8, i64 noundef %.sroa.speculated.i.i) #23
  %.not.i.i = icmp eq i32 %10, 0
  br i1 %.not.i.i, label %_ZN4llvm9StringRef13compareMemoryEPKcS2_m.exit.thread.i.i, label %11

11:                                               ; preds = %_ZN4llvm9StringRef13compareMemoryEPKcS2_m.exit.i.i
  %.inv.i.i = icmp slt i32 %10, 0
  br label %_ZN4llvmltENS_9StringRefES0_.exit

_ZN4llvm9StringRef13compareMemoryEPKcS2_m.exit.thread.i.i: ; preds = %_ZN4llvm9StringRef13compareMemoryEPKcS2_m.exit.i.i, %2
  %12 = icmp ult i64 %4, %6
  br label %_ZN4llvmltENS_9StringRefES0_.exit

_ZN4llvmltENS_9StringRefES0_.exit:                ; preds = %11, %_ZN4llvm9StringRef13compareMemoryEPKcS2_m.exit.thread.i.i
  %.0.i.i = phi i1 [ %.inv.i.i, %11 ], [ %12, %_ZN4llvm9StringRef13compareMemoryEPKcS2_m.exit.thread.i.i ]
  ret i1 %.0.i.i
}